target datalayout = "e-m:e-p270:32:32-p271:32:32-p272:64:64-i64:64-i128:128-f80:128-n8:16:32:64-S128"
target triple = "x86_64-pc-linux-gnu"

%"class.cvc5::internal::prop::SatLiteral" = type { i64 }
%"class.cvc5::internal::NodeTemplate.484" = type { ptr }
%"class.std::__cxx11::basic_string" = type { %"struct.std::__cxx11::basic_string<char>::_Alloc_hider", i64, %union.anon }
%"struct.std::__cxx11::basic_string<char>::_Alloc_hider" = type { ptr }
%union.anon = type { i64, [8 x i8] }
%"class.cvc5::internal::prop::PropEngine" = type { %"class.cvc5::internal::EnvObj", i8, ptr, %"class.std::unique_ptr", ptr, ptr, %"class.std::vector", ptr, %"class.cvc5::internal::CDProof", %"class.std::unique_ptr.15", i8, [7 x i8], %"class.cvc5::context::CDList", %"struct.cvc5::internal::prop::PropEngine::Statistics" }
%"class.cvc5::internal::EnvObj" = type { ptr, ptr }
%"class.std::unique_ptr" = type { %"struct.std::__uniq_ptr_data" }
%"struct.std::__uniq_ptr_data" = type { %"class.std::__uniq_ptr_impl" }
%"class.std::__uniq_ptr_impl" = type { %"class.std::tuple" }
%"class.std::tuple" = type { %"struct.std::_Tuple_impl" }
%"struct.std::_Tuple_impl" = type { %"struct.std::_Head_base.1" }
%"struct.std::_Head_base.1" = type { ptr }
%"class.std::vector" = type { %"struct.std::_Vector_base" }
%"struct.std::_Vector_base" = type { %"struct.std::_Vector_base<cvc5::internal::NodeTemplate<true>, std::allocator<cvc5::internal::NodeTemplate<true>>>::_Vector_impl" }
%"struct.std::_Vector_base<cvc5::internal::NodeTemplate<true>, std::allocator<cvc5::internal::NodeTemplate<true>>>::_Vector_impl" = type { %"struct.std::_Vector_base<cvc5::internal::NodeTemplate<true>, std::allocator<cvc5::internal::NodeTemplate<true>>>::_Vector_impl_data" }
%"struct.std::_Vector_base<cvc5::internal::NodeTemplate<true>, std::allocator<cvc5::internal::NodeTemplate<true>>>::_Vector_impl_data" = type { ptr, ptr, ptr }
%"class.cvc5::internal::CDProof" = type <{ %"class.cvc5::internal::EnvObj", %"class.cvc5::internal::ProofGenerator", %"class.cvc5::context::Context", %"class.cvc5::context::CDHashMap", %"class.std::__cxx11::basic_string", i8, [7 x i8] }>
%"class.cvc5::internal::ProofGenerator" = type { ptr }
%"class.cvc5::context::Context" = type { ptr, %"class.std::vector.2", ptr, ptr }
%"class.std::vector.2" = type { %"struct.std::_Vector_base.3" }
%"struct.std::_Vector_base.3" = type { %"struct.std::_Vector_base<cvc5::context::Scope *, std::allocator<cvc5::context::Scope *>>::_Vector_impl" }
%"struct.std::_Vector_base<cvc5::context::Scope *, std::allocator<cvc5::context::Scope *>>::_Vector_impl" = type { %"struct.std::_Vector_base<cvc5::context::Scope *, std::allocator<cvc5::context::Scope *>>::_Vector_impl_data" }
%"struct.std::_Vector_base<cvc5::context::Scope *, std::allocator<cvc5::context::Scope *>>::_Vector_impl_data" = type { ptr, ptr, ptr }
%"class.cvc5::context::CDHashMap" = type { %"class.cvc5::context::ContextObj", %"class.std::unordered_map", ptr, ptr }
%"class.cvc5::context::ContextObj" = type { ptr, ptr, ptr, ptr, ptr }
%"class.std::unordered_map" = type { %"class.std::_Hashtable" }
%"class.std::_Hashtable" = type { ptr, i64, %"struct.std::__detail::_Hash_node_base", i64, %"struct.std::__detail::_Prime_rehash_policy", ptr }
%"struct.std::__detail::_Hash_node_base" = type { ptr }
%"struct.std::__detail::_Prime_rehash_policy" = type { float, i64 }
%"class.std::unique_ptr.15" = type { %"struct.std::__uniq_ptr_data.16" }
%"struct.std::__uniq_ptr_data.16" = type { %"class.std::__uniq_ptr_impl.17" }
%"class.std::__uniq_ptr_impl.17" = type { %"class.std::tuple.18" }
%"class.std::tuple.18" = type { %"struct.std::_Tuple_impl.19" }
%"struct.std::_Tuple_impl.19" = type { %"struct.std::_Head_base.22" }
%"struct.std::_Head_base.22" = type { ptr }
%"class.cvc5::context::CDList" = type <{ %"class.cvc5::context::ContextObj", %"class.std::vector", i64, i8, [7 x i8] }>
%"struct.cvc5::internal::prop::PropEngine::Statistics" = type { %"class.cvc5::internal::IntStat" }
%"class.cvc5::internal::IntStat" = type { %"class.cvc5::internal::ValueStat" }
%"class.cvc5::internal::ValueStat" = type { ptr }

; Function Attrs: mustprogress nounwind uwtable
define linkonce_odr hidden void @_ZN4cvc58internal12NodeTemplateILb0EED2Ev(ptr noundef nonnull align 8 dereferenceable(8) %0) unnamed_addr #4 comdat align 2 {
  %2 = alloca ptr, align 8
  store ptr %0, ptr %2, align 8, !tbaa !351
  ret void
}

; Function Attrs: mustprogress nounwind uwtable
define linkonce_odr hidden void @_ZN4cvc58internal12NodeTemplateILb0EEC2ERKS2_(ptr noundef nonnull align 8 dereferenceable(8) %0, ptr noundef nonnull align 8 dereferenceable(8) %1) unnamed_addr #4 comdat align 2 {
  %3 = alloca ptr, align 8
  %4 = alloca ptr, align 8
  store ptr %0, ptr %3, align 8, !tbaa !351
  store ptr %1, ptr %4, align 8, !tbaa !351
  %5 = load ptr, ptr %3, align 8
  %6 = load ptr, ptr %4, align 8, !tbaa !351
  %7 = getelementptr inbounds nuw %"class.cvc5::internal::NodeTemplate.484", ptr %6, i32 0, i32 0
  %8 = load ptr, ptr %7, align 8, !tbaa !357
  %9 = getelementptr inbounds nuw %"class.cvc5::internal::NodeTemplate.484", ptr %5, i32 0, i32 0
  store ptr %8, ptr %9, align 8, !tbaa !357
  ret void
}

; Function Attrs: mustprogress uwtable
define hidden noundef zeroext i1 @_ZNK4cvc58internal4prop10PropEngine8hasValueENS0_12NodeTemplateILb0EEERb(ptr noundef nonnull align 8 dereferenceable(416) %0, ptr noundef %1, ptr noundef nonnull align 1 dereferenceable(1) %2) #6 align 2 personality ptr @__gxx_personality_v0 {
  %4 = alloca i1, align 1
  %5 = alloca ptr, align 8
  %6 = alloca ptr, align 8
  %7 = alloca ptr, align 8
  %8 = alloca %"class.cvc5::internal::prop::SatLiteral", align 8
  %9 = alloca %"class.cvc5::internal::NodeTemplate.484", align 8
  %10 = alloca ptr, align 8
  %11 = alloca i32, align 4
  %12 = alloca i32, align 4
  %13 = alloca %"class.cvc5::internal::prop::SatLiteral", align 8
  %14 = alloca i32, align 4
  store ptr %0, ptr %5, align 8, !tbaa !16
  store ptr %1, ptr %6, align 8, !tbaa !351
  store ptr %2, ptr %7, align 8, !tbaa !406
  %15 = load ptr, ptr %5, align 8
  call void @llvm.lifetime.start.p0(i64 8, ptr %8) #3
  %16 = getelementptr inbounds nuw %"class.cvc5::internal::prop::PropEngine", ptr %15, i32 0, i32 7
  %17 = load ptr, ptr %16, align 8, !tbaa !86
  call void @_ZN4cvc58internal12NodeTemplateILb0EEC2ERKS2_(ptr noundef nonnull align 8 dereferenceable(8) %9, ptr noundef nonnull align 8 dereferenceable(8) %1)
  %18 = invoke i64 @_ZN4cvc58internal4prop9CnfStream10getLiteralENS0_12NodeTemplateILb0EEE(ptr noundef nonnull align 8 dereferenceable(352) %17, ptr noundef %9)
          to label %19 unwind label %33

19:                                               ; preds = %3
  %20 = getelementptr inbounds nuw %"class.cvc5::internal::prop::SatLiteral", ptr %8, i32 0, i32 0
  store i64 %18, ptr %20, align 8
  call void @_ZN4cvc58internal12NodeTemplateILb0EED2Ev(ptr noundef nonnull align 8 dereferenceable(8) %9) #3
  call void @llvm.lifetime.start.p0(i64 4, ptr %12) #3
  %21 = getelementptr inbounds nuw %"class.cvc5::internal::prop::PropEngine", ptr %15, i32 0, i32 5
  %22 = load ptr, ptr %21, align 8, !tbaa !85
  call void @llvm.memcpy.p0.p0.i64(ptr align 8 %13, ptr align 8 %8, i64 8, i1 false), !tbaa.struct !430
  %23 = getelementptr inbounds nuw %"class.cvc5::internal::prop::SatLiteral", ptr %13, i32 0, i32 0
  %24 = load i64, ptr %23, align 8
  %25 = load ptr, ptr %22, align 8, !tbaa !22
  %26 = getelementptr inbounds ptr, ptr %25, i64 13
  %27 = load ptr, ptr %26, align 8
  %28 = call noundef i32 %27(ptr noundef nonnull align 8 dereferenceable(8) %22, i64 %24)
  store i32 %28, ptr %12, align 4, !tbaa !444
  %29 = load i32, ptr %12, align 4, !tbaa !444
  %30 = icmp eq i32 %29, 1
  br i1 %30, label %31, label %37

31:                                               ; preds = %19
  %32 = load ptr, ptr %7, align 8, !tbaa !406
  store i8 1, ptr %32, align 1, !tbaa !10
  store i1 true, ptr %4, align 1
  store i32 1, ptr %14, align 4
  br label %43

33:                                               ; preds = %3
  %34 = landingpad { ptr, i32 }
          cleanup
  %35 = extractvalue { ptr, i32 } %34, 0
  store ptr %35, ptr %10, align 8
  %36 = extractvalue { ptr, i32 } %34, 1
  store i32 %36, ptr %11, align 4
  call void @_ZN4cvc58internal12NodeTemplateILb0EED2Ev(ptr noundef nonnull align 8 dereferenceable(8) %9) #3
  call void @llvm.lifetime.end.p0(i64 8, ptr %8) #3
  br label %45

37:                                               ; preds = %19
  %38 = load i32, ptr %12, align 4, !tbaa !444
  %39 = icmp eq i32 %38, 2
  br i1 %39, label %40, label %42

40:                                               ; preds = %37
  %41 = load ptr, ptr %7, align 8, !tbaa !406
  store i8 0, ptr %41, align 1, !tbaa !10
  store i1 true, ptr %4, align 1
  store i32 1, ptr %14, align 4
  br label %43

42:                                               ; preds = %37
  store i1 false, ptr %4, align 1
  store i32 1, ptr %14, align 4
  br label %43

43:                                               ; preds = %42, %40, %31
  call void @llvm.lifetime.end.p0(i64 4, ptr %12) #3
  call void @llvm.lifetime.end.p0(i64 8, ptr %8) #3
  %44 = load i1, ptr %4, align 1
  ret i1 %44

45:                                               ; preds = %33
  %46 = load ptr, ptr %10, align 8
  %47 = load i32, ptr %11, align 4
  %48 = insertvalue { ptr, i32 } poison, ptr %46, 0
  %49 = insertvalue { ptr, i32 } %48, i32 %47, 1
  resume { ptr, i32 } %49
}