; Function Attrs: mustprogress uwtable
define hidden noundef zeroext i1 @_ZNK4cvc58internal4prop10PropEngine8hasValueENS0_12NodeTemplateILb0EEERb(ptr noundef nonnull readonly align 8 captures(none) dereferenceable(416) %0, ptr noundef readonly captures(none) %1, ptr noundef nonnull writeonly align 1 captures(none) dereferenceable(1) %2) local_unnamed_addr #4 align 2 personality ptr @__gxx_personality_v0 {
  %4 = alloca %"class.cvc5::internal::NodeTemplate.484", align 8
  %5 = getelementptr inbounds nuw i8, ptr %0, i64 80
  %6 = load ptr, ptr %5, align 8, !tbaa !273
  %7 = load ptr, ptr %1, align 8, !tbaa !302
  store ptr %7, ptr %4, align 8, !tbaa !302
  %8 = call i64 @_ZN4cvc58internal4prop9CnfStream10getLiteralENS0_12NodeTemplateILb0EEE(ptr noundef nonnull align 8 dereferenceable(352) %6, ptr noundef nonnull %4)
  %9 = getelementptr inbounds nuw i8, ptr %0, i64 48
  %10 = load ptr, ptr %9, align 8, !tbaa !271
  %11 = load ptr, ptr %10, align 8, !tbaa !3
  %12 = getelementptr inbounds nuw i8, ptr %11, i64 104
  %13 = load ptr, ptr %12, align 8
  %14 = call noundef i32 %13(ptr noundef nonnull align 8 dereferenceable(8) %10, i64 %8)
  switch i32 %14, label %16 [
    i32 1, label %.sink.split
    i32 2, label %15
  ]

15:                                               ; preds = %3
  br label %.sink.split

.sink.split:                                      ; preds = %3, %15
  %.sink = phi i8 [ 0, %15 ], [ 1, %3 ]
  store i8 %.sink, ptr %2, align 1, !tbaa !301
  br label %16

16:                                               ; preds = %.sink.split, %3
  %.0 = phi i1 [ false, %3 ], [ true, %.sink.split ]
  ret i1 %.0
}